target datalayout = "e-m:e-p270:32:32-p271:32:32-p272:64:64-i64:64-i128:128-f80:128-n8:16:32:64-S128"
target triple = "x86_64-pc-linux-gnu"

%"struct.cv::utils::trace::details::Region::LocationStaticStorage" = type { ptr, ptr, ptr, i32, i32 }
%"class.cv::utils::trace::details::Region" = type <{ ptr, i32, [4 x i8] }>
%"class.std::__cxx11::basic_string" = type { %"struct.std::__cxx11::basic_string<char>::_Alloc_hider", i64, %union.anon }
%"struct.std::__cxx11::basic_string<char>::_Alloc_hider" = type { ptr }
%union.anon = type { i64, [8 x i8] }

@.str.1 = private unnamed_addr constant [124 x i8] c"generated/home/dtcxzyw/WorkSpace/Projects/compilers/llvm-opt-benchmark/bench/opencv/opencv/modules/core/src/arithm.simd.hpp\00", align 1
@_ZZN2cv3hal5min8sEPKamS2_mPamiiPvE25__cv_trace_location_fn544 = internal constant %"struct.cv::utils::trace::details::Region::LocationStaticStorage" { ptr @_ZZN2cv3hal5min8sEPKamS2_mPamiiPvE31__cv_trace_location_extra_fn544, ptr @.str.105, ptr @.str.1, i32 544, i32 1 }, align 8
@.str.106 = private unnamed_addr constant [63 x i8] c"HAL implementation min8s ==> hal_ni_min8s returned %d (0x%08x)\00", align 1
@__func__._ZN2cv3hal5min8sEPKamS2_mPamiiPv = private unnamed_addr constant [6 x i8] c"min8s\00", align 1

; Function Attrs: mustprogress nounwind uwtable
define linkonce_odr noundef nonnull align 1 dereferenceable(1) ptr @_ZSt3minIaERKT_S2_S2_(ptr noundef nonnull align 1 dereferenceable(1) %0, ptr noundef nonnull align 1 dereferenceable(1) %1) #2 comdat {
  %3 = alloca ptr, align 8
  %4 = alloca ptr, align 8
  %5 = alloca ptr, align 8
  store ptr %0, ptr %4, align 8
  store ptr %1, ptr %5, align 8
  %6 = load ptr, ptr %5, align 8
  %7 = load i8, ptr %6, align 1
  %8 = sext i8 %7 to i32
  %9 = load ptr, ptr %4, align 8
  %10 = load i8, ptr %9, align 1
  %11 = sext i8 %10 to i32
  %12 = icmp slt i32 %8, %11
  br i1 %12, label %13, label %15

13:                                               ; preds = %2
  %14 = load ptr, ptr %5, align 8
  store ptr %14, ptr %3, align 8
  br label %17

15:                                               ; preds = %2
  %16 = load ptr, ptr %4, align 8
  store ptr %16, ptr %3, align 8
  br label %17

17:                                               ; preds = %15, %13
  %18 = load ptr, ptr %3, align 8
  ret ptr %18
}

; Function Attrs: mustprogress nounwind uwtable
define linkonce_odr hidden void @_ZN2cv12hal_baseline9v_cleanupEv() #2 comdat {
  ret void
}

; Function Attrs: mustprogress uwtable
define internal noundef signext i8 @_ZN2cv3hal12cpu_baselineL5c_minIaEET_S3_S3_(i8 noundef signext %0, i8 noundef signext %1) #0 {
  %3 = alloca i8, align 1
  %4 = alloca i8, align 1
  store i8 %0, ptr %3, align 1
  store i8 %1, ptr %4, align 1
  %5 = call noundef nonnull align 1 dereferenceable(1) ptr @_ZSt3minIaERKT_S2_S2_(ptr noundef nonnull align 1 dereferenceable(1) %3, ptr noundef nonnull align 1 dereferenceable(1) %4)
  %6 = load i8, ptr %5, align 1
  ret i8 %6
}

; Function Attrs: mustprogress uwtable
define linkonce_odr hidden void @_ZN2cv12hal_baseline11simd128_cpp10vx_cleanupEv() #0 comdat {
  call void @_ZN2cv12hal_baseline9v_cleanupEv()
  ret void
}

; Function Attrs: mustprogress uwtable
define linkonce_odr hidden noundef signext i8 @_ZN2cv3hal12cpu_baseline6op_minIaNS_12hal_baseline5v_regIaLi16EEEE1rEaa(i8 noundef signext %0, i8 noundef signext %1) #0 comdat align 2 {
  %3 = alloca i8, align 1
  %4 = alloca i8, align 1
  store i8 %0, ptr %3, align 1
  store i8 %1, ptr %4, align 1
  %5 = load i8, ptr %3, align 1
  %6 = load i8, ptr %4, align 1
  %7 = call noundef signext i8 @_ZN2cv3hal12cpu_baselineL5c_minIaEET_S3_S3_(i8 noundef signext %5, i8 noundef signext %6)
  ret i8 %7
}

; Function Attrs: mustprogress uwtable
define internal void @_ZN2cv3hal12cpu_baselineL8bin_loopINS1_6op_minEaNS_12hal_baseline5v_regIaLi16EEEEEvPKT0_mS9_mPS7_mii(ptr noundef %0, i64 noundef %1, ptr noundef %2, i64 noundef %3, ptr noundef %4, i64 noundef %5, i32 noundef %6, i32 noundef %7) #0 {
  %9 = alloca ptr, align 8
  %10 = alloca i64, align 8
  %11 = alloca ptr, align 8
  %12 = alloca i64, align 8
  %13 = alloca ptr, align 8
  %14 = alloca i64, align 8
  %15 = alloca i32, align 4
  %16 = alloca i32, align 4
  %17 = alloca i32, align 4
  store ptr %0, ptr %9, align 8
  store i64 %1, ptr %10, align 8
  store ptr %2, ptr %11, align 8
  store i64 %3, ptr %12, align 8
  store ptr %4, ptr %13, align 8
  store i64 %5, ptr %14, align 8
  store i32 %6, ptr %15, align 4
  store i32 %7, ptr %16, align 4
  %18 = load i64, ptr %10, align 8
  %19 = udiv i64 %18, 1
  store i64 %19, ptr %10, align 8
  %20 = load i64, ptr %12, align 8
  %21 = udiv i64 %20, 1
  store i64 %21, ptr %12, align 8
  %22 = load i64, ptr %14, align 8
  %23 = udiv i64 %22, 1
  store i64 %23, ptr %14, align 8
  br label %24

24:                                               ; preds = %53, %8
  %25 = load i32, ptr %16, align 4
  %26 = add nsw i32 %25, -1
  store i32 %26, ptr %16, align 4
  %27 = icmp ne i32 %25, 0
  br i1 %27, label %28, label %63

28:                                               ; preds = %24
  store i32 0, ptr %17, align 4
  br label %29

29:                                               ; preds = %49, %28
  %30 = load i32, ptr %17, align 4
  %31 = load i32, ptr %15, align 4
  %32 = icmp slt i32 %30, %31
  br i1 %32, label %33, label %52

33:                                               ; preds = %29
  %34 = load ptr, ptr %9, align 8
  %35 = load i32, ptr %17, align 4
  %36 = sext i32 %35 to i64
  %37 = getelementptr inbounds i8, ptr %34, i64 %36
  %38 = load i8, ptr %37, align 1
  %39 = load ptr, ptr %11, align 8
  %40 = load i32, ptr %17, align 4
  %41 = sext i32 %40 to i64
  %42 = getelementptr inbounds i8, ptr %39, i64 %41
  %43 = load i8, ptr %42, align 1
  %44 = call noundef signext i8 @_ZN2cv3hal12cpu_baseline6op_minIaNS_12hal_baseline5v_regIaLi16EEEE1rEaa(i8 noundef signext %38, i8 noundef signext %43)
  %45 = load ptr, ptr %13, align 8
  %46 = load i32, ptr %17, align 4
  %47 = sext i32 %46 to i64
  %48 = getelementptr inbounds i8, ptr %45, i64 %47
  store i8 %44, ptr %48, align 1
  br label %49

49:                                               ; preds = %33
  %50 = load i32, ptr %17, align 4
  %51 = add nsw i32 %50, 1
  store i32 %51, ptr %17, align 4
  br label %29, !llvm.loop !37

52:                                               ; preds = %29
  br label %53

53:                                               ; preds = %52
  %54 = load i64, ptr %10, align 8
  %55 = load ptr, ptr %9, align 8
  %56 = getelementptr inbounds i8, ptr %55, i64 %54
  store ptr %56, ptr %9, align 8
  %57 = load i64, ptr %12, align 8
  %58 = load ptr, ptr %11, align 8
  %59 = getelementptr inbounds i8, ptr %58, i64 %57
  store ptr %59, ptr %11, align 8
  %60 = load i64, ptr %14, align 8
  %61 = load ptr, ptr %13, align 8
  %62 = getelementptr inbounds i8, ptr %61, i64 %60
  store ptr %62, ptr %13, align 8
  br label %24, !llvm.loop !38

63:                                               ; preds = %24
  call void @_ZN2cv12hal_baseline11simd128_cpp10vx_cleanupEv()
  ret void
}

; Function Attrs: mustprogress uwtable
define hidden void @_ZN2cv3hal12cpu_baseline5min8sEPKamS3_mPamii(ptr noundef %0, i64 noundef %1, ptr noundef %2, i64 noundef %3, ptr noundef %4, i64 noundef %5, i32 noundef %6, i32 noundef %7) #0 personality ptr @__gxx_personality_v0 {
  %9 = alloca ptr, align 8
  %10 = alloca i64, align 8
  %11 = alloca ptr, align 8
  %12 = alloca i64, align 8
  %13 = alloca ptr, align 8
  %14 = alloca i64, align 8
  %15 = alloca i32, align 4
  %16 = alloca i32, align 4
  %17 = alloca %"class.cv::utils::trace::details::Region", align 8
  %18 = alloca ptr, align 8
  %19 = alloca i32, align 4
  store ptr %0, ptr %9, align 8
  store i64 %1, ptr %10, align 8
  store ptr %2, ptr %11, align 8
  store i64 %3, ptr %12, align 8
  store ptr %4, ptr %13, align 8
  store i64 %5, ptr %14, align 8
  store i32 %6, ptr %15, align 4
  store i32 %7, ptr %16, align 4
  call void @_ZN2cv5utils5trace7details6RegionC1ERKNS3_21LocationStaticStorageE(ptr noundef nonnull align 8 dereferenceable(12) %17, ptr noundef nonnull align 8 dereferenceable(32) @_ZZN2cv3hal12cpu_baseline5min8sEPKamS3_mPamiiE25__cv_trace_location_fn544)
  %20 = load ptr, ptr %9, align 8
  %21 = load i64, ptr %10, align 8
  %22 = load ptr, ptr %11, align 8
  %23 = load i64, ptr %12, align 8
  %24 = load ptr, ptr %13, align 8
  %25 = load i64, ptr %14, align 8
  %26 = load i32, ptr %15, align 4
  %27 = load i32, ptr %16, align 4
  invoke void @_ZN2cv3hal12cpu_baselineL8bin_loopINS1_6op_minEaNS_12hal_baseline5v_regIaLi16EEEEEvPKT0_mS9_mPS7_mii(ptr noundef %20, i64 noundef %21, ptr noundef %22, i64 noundef %23, ptr noundef %24, i64 noundef %25, i32 noundef %26, i32 noundef %27)
          to label %28 unwind label %29

28:                                               ; preds = %8
  call void @_ZN2cv5utils5trace7details6RegionD2Ev(ptr noundef nonnull align 8 dereferenceable(12) %17) #9
  ret void

29:                                               ; preds = %8
  %30 = landingpad { ptr, i32 }
          cleanup
  %31 = extractvalue { ptr, i32 } %30, 0
  store ptr %31, ptr %18, align 8
  %32 = extractvalue { ptr, i32 } %30, 1
  store i32 %32, ptr %19, align 4
  call void @_ZN2cv5utils5trace7details6RegionD2Ev(ptr noundef nonnull align 8 dereferenceable(12) %17) #9
  br label %33

33:                                               ; preds = %29
  %34 = load ptr, ptr %18, align 8
  %35 = load i32, ptr %19, align 4
  %36 = insertvalue { ptr, i32 } poison, ptr %34, 0
  %37 = insertvalue { ptr, i32 } %36, i32 %35, 1
  resume { ptr, i32 } %37
}

; Function Attrs: mustprogress nounwind uwtable
define linkonce_odr hidden noundef i32 @_Z12hal_ni_min8sPKamS0_mPamii(ptr noundef %0, i64 noundef %1, ptr noundef %2, i64 noundef %3, ptr noundef %4, i64 noundef %5, i32 noundef %6, i32 noundef %7) #2 comdat {
  %9 = alloca ptr, align 8
  %10 = alloca i64, align 8
  %11 = alloca ptr, align 8
  %12 = alloca i64, align 8
  %13 = alloca ptr, align 8
  %14 = alloca i64, align 8
  %15 = alloca i32, align 4
  %16 = alloca i32, align 4
  store ptr %0, ptr %9, align 8
  store i64 %1, ptr %10, align 8
  store ptr %2, ptr %11, align 8
  store i64 %3, ptr %12, align 8
  store ptr %4, ptr %13, align 8
  store i64 %5, ptr %14, align 8
  store i32 %6, ptr %15, align 4
  store i32 %7, ptr %16, align 4
  ret i32 1
}

; Function Attrs: mustprogress uwtable
define void @_ZN2cv3hal5min8sEPKamS2_mPamiiPv(ptr noundef %0, i64 noundef %1, ptr noundef %2, i64 noundef %3, ptr noundef %4, i64 noundef %5, i32 noundef %6, i32 noundef %7, ptr noundef %8) #0 personality ptr @__gxx_personality_v0 {
  %10 = alloca ptr, align 8
  %11 = alloca i64, align 8
  %12 = alloca ptr, align 8
  %13 = alloca i64, align 8
  %14 = alloca ptr, align 8
  %15 = alloca i64, align 8
  %16 = alloca i32, align 4
  %17 = alloca i32, align 4
  %18 = alloca ptr, align 8
  %19 = alloca %"class.cv::utils::trace::details::Region", align 8
  %20 = alloca i32, align 4
  %21 = alloca ptr, align 8
  %22 = alloca i32, align 4
  %23 = alloca i32, align 4
  %24 = alloca %"class.std::__cxx11::basic_string", align 8
  store ptr %0, ptr %10, align 8
  store i64 %1, ptr %11, align 8
  store ptr %2, ptr %12, align 8
  store i64 %3, ptr %13, align 8
  store ptr %4, ptr %14, align 8
  store i64 %5, ptr %15, align 8
  store i32 %6, ptr %16, align 4
  store i32 %7, ptr %17, align 4
  store ptr %8, ptr %18, align 8
  call void @_ZN2cv5utils5trace7details6RegionC1ERKNS3_21LocationStaticStorageE(ptr noundef nonnull align 8 dereferenceable(12) %19, ptr noundef nonnull align 8 dereferenceable(32) @_ZZN2cv3hal5min8sEPKamS2_mPamiiPvE25__cv_trace_location_fn544)
  %25 = load ptr, ptr %10, align 8
  %26 = load i64, ptr %11, align 8
  %27 = load ptr, ptr %12, align 8
  %28 = load i64, ptr %13, align 8
  %29 = load ptr, ptr %14, align 8
  %30 = load i64, ptr %15, align 8
  %31 = load i32, ptr %16, align 4
  %32 = load i32, ptr %17, align 4
  %33 = invoke noundef i32 @_Z12hal_ni_min8sPKamS0_mPamii(ptr noundef %25, i64 noundef %26, ptr noundef %27, i64 noundef %28, ptr noundef %29, i64 noundef %30, i32 noundef %31, i32 noundef %32)
          to label %34 unwind label %38

34:                                               ; preds = %9
  store i32 %33, ptr %20, align 4
  %35 = load i32, ptr %20, align 4
  %36 = icmp eq i32 %35, 0
  br i1 %36, label %37, label %42

37:                                               ; preds = %34
  store i32 1, ptr %23, align 4
  br label %65

38:                                               ; preds = %55, %45, %9
  %39 = landingpad { ptr, i32 }
          cleanup
  %40 = extractvalue { ptr, i32 } %39, 0
  store ptr %40, ptr %21, align 8
  %41 = extractvalue { ptr, i32 } %39, 1
  store i32 %41, ptr %22, align 4
  br label %66

42:                                               ; preds = %34
  %43 = load i32, ptr %20, align 4
  %44 = icmp ne i32 %43, 1
  br i1 %44, label %45, label %54

45:                                               ; preds = %42
  %46 = load i32, ptr %20, align 4
  %47 = load i32, ptr %20, align 4
  invoke void (ptr, ptr, ...) @_ZN2cv6formatB5cxx11EPKcz(ptr dead_on_unwind writable sret(%"class.std::__cxx11::basic_string") align 8 %24, ptr noundef @.str.106, i32 noundef %46, i32 noundef %47)
          to label %48 unwind label %38

48:                                               ; preds = %45
  invoke void @_ZN2cv5errorEiRKNSt7__cxx1112basic_stringIcSt11char_traitsIcESaIcEEEPKcS9_i(i32 noundef -3, ptr noundef nonnull align 8 dereferenceable(32) %24, ptr noundef @__func__._ZN2cv3hal5min8sEPKamS2_mPamiiPv, ptr noundef @.str.1, i32 noundef 544) #11
          to label %49 unwind label %50

49:                                               ; preds = %48
  unreachable

50:                                               ; preds = %48
  %51 = landingpad { ptr, i32 }
          cleanup
  %52 = extractvalue { ptr, i32 } %51, 0
  store ptr %52, ptr %21, align 8
  %53 = extractvalue { ptr, i32 } %51, 1
  store i32 %53, ptr %22, align 4
  call void @_ZNSt7__cxx1112basic_stringIcSt11char_traitsIcESaIcEED1Ev(ptr noundef nonnull align 8 dereferenceable(32) %24) #9
  br label %66

54:                                               ; preds = %42
  br label %55

55:                                               ; preds = %54
  %56 = load ptr, ptr %10, align 8
  %57 = load i64, ptr %11, align 8
  %58 = load ptr, ptr %12, align 8
  %59 = load i64, ptr %13, align 8
  %60 = load ptr, ptr %14, align 8
  %61 = load i64, ptr %15, align 8
  %62 = load i32, ptr %16, align 4
  %63 = load i32, ptr %17, align 4
  invoke void @_ZN2cv3hal12cpu_baseline5min8sEPKamS3_mPamii(ptr noundef %56, i64 noundef %57, ptr noundef %58, i64 noundef %59, ptr noundef %60, i64 noundef %61, i32 noundef %62, i32 noundef %63)
          to label %64 unwind label %38

64:                                               ; preds = %55
  store i32 1, ptr %23, align 4
  br label %65

65:                                               ; preds = %64, %37
  call void @_ZN2cv5utils5trace7details6RegionD2Ev(ptr noundef nonnull align 8 dereferenceable(12) %19) #9
  ret void

66:                                               ; preds = %50, %38
  call void @_ZN2cv5utils5trace7details6RegionD2Ev(ptr noundef nonnull align 8 dereferenceable(12) %19) #9
  br label %67

67:                                               ; preds = %66
  %68 = load ptr, ptr %21, align 8
  %69 = load i32, ptr %22, align 4
  %70 = insertvalue { ptr, i32 } poison, ptr %68, 0
  %71 = insertvalue { ptr, i32 } %70, i32 %69, 1
  resume { ptr, i32 } %71
}