; Function Attrs: mustprogress uwtable
define void @_ZN2cv3hal5min8sEPKamS2_mPamiiPv(ptr nocapture noundef readonly %0, i64 noundef %1, ptr nocapture noundef readonly %2, i64 noundef %3, ptr nocapture noundef writeonly %4, i64 noundef %5, i32 noundef %6, i32 noundef %7, ptr nocapture noundef readnone %8) local_unnamed_addr #0 personality ptr @__gxx_personality_v0 {
  %10 = alloca %"class.cv::utils::trace::details::Region", align 8
  %11 = alloca %"class.cv::utils::trace::details::Region", align 8
  call void @_ZN2cv5utils5trace7details6RegionC1ERKNS3_21LocationStaticStorageE(ptr noundef nonnull align 8 dereferenceable(12) %11, ptr noundef nonnull align 8 dereferenceable(32) @_ZZN2cv3hal5min8sEPKamS2_mPamiiPvE25__cv_trace_location_fn544)
  call void @llvm.lifetime.start.p0(i64 16, ptr nonnull %10)
  invoke void @_ZN2cv5utils5trace7details6RegionC1ERKNS3_21LocationStaticStorageE(ptr noundef nonnull align 8 dereferenceable(12) %10, ptr noundef nonnull align 8 dereferenceable(32) @_ZZN2cv3hal12cpu_baseline5min8sEPKamS3_mPamiiE25__cv_trace_location_fn544)
          to label %.noexc unwind label %36

.noexc:                                           ; preds = %9
  %.not23.i.i = icmp ne i32 %7, 0
  %12 = icmp sgt i32 %6, 0
  %or.cond.i.i = and i1 %12, %.not23.i.i
  br i1 %or.cond.i.i, label %.preheader.us.preheader.i.i, label %_ZN2cv3hal12cpu_baselineL8bin_loopINS1_6op_minEaNS_12hal_baseline5v_regIaLi16EEEEEvPKT0_mS9_mPS7_mii.exit.i

.preheader.us.preheader.i.i:                      ; preds = %.noexc
  %wide.trip.count.i.i = zext nneg i32 %6 to i64
  br label %.preheader.us.i.i

.preheader.us.i.i:                                ; preds = %._crit_edge.us.i.i, %.preheader.us.preheader.i.i
  %.in.i.i = phi i32 [ %19, %._crit_edge.us.i.i ], [ %7, %.preheader.us.preheader.i.i ]
  %.01926.us.i.i = phi ptr [ %20, %._crit_edge.us.i.i ], [ %0, %.preheader.us.preheader.i.i ]
  %.02025.us.i.i = phi ptr [ %22, %._crit_edge.us.i.i ], [ %4, %.preheader.us.preheader.i.i ]
  %.02124.us.i.i = phi ptr [ %21, %._crit_edge.us.i.i ], [ %2, %.preheader.us.preheader.i.i ]
  br label %13

13:                                               ; preds = %13, %.preheader.us.i.i
  %indvars.iv.i.i = phi i64 [ 0, %.preheader.us.i.i ], [ %indvars.iv.next.i.i, %13 ]
  %14 = getelementptr inbounds i8, ptr %.01926.us.i.i, i64 %indvars.iv.i.i
  %15 = load i8, ptr %14, align 1
  %16 = getelementptr inbounds i8, ptr %.02124.us.i.i, i64 %indvars.iv.i.i
  %17 = load i8, ptr %16, align 1
  %.sroa.speculated.i.i.us.i.i = call noundef i8 @llvm.smin.i8(i8 %17, i8 %15)
  %18 = getelementptr inbounds i8, ptr %.02025.us.i.i, i64 %indvars.iv.i.i
  store i8 %.sroa.speculated.i.i.us.i.i, ptr %18, align 1
  %indvars.iv.next.i.i = add nuw nsw i64 %indvars.iv.i.i, 1
  %exitcond.not.i.i = icmp eq i64 %indvars.iv.next.i.i, %wide.trip.count.i.i
  br i1 %exitcond.not.i.i, label %._crit_edge.us.i.i, label %13, !llvm.loop !37

._crit_edge.us.i.i:                               ; preds = %13
  %19 = add nsw i32 %.in.i.i, -1
  %20 = getelementptr inbounds i8, ptr %.01926.us.i.i, i64 %1
  %21 = getelementptr inbounds i8, ptr %.02124.us.i.i, i64 %3
  %22 = getelementptr inbounds i8, ptr %.02025.us.i.i, i64 %5
  %.not.us.i.i = icmp eq i32 %19, 0
  br i1 %.not.us.i.i, label %_ZN2cv3hal12cpu_baselineL8bin_loopINS1_6op_minEaNS_12hal_baseline5v_regIaLi16EEEEEvPKT0_mS9_mPS7_mii.exit.i, label %.preheader.us.i.i, !llvm.loop !38

_ZN2cv3hal12cpu_baselineL8bin_loopINS1_6op_minEaNS_12hal_baseline5v_regIaLi16EEEEEvPKT0_mS9_mPS7_mii.exit.i: ; preds = %._crit_edge.us.i.i, %.noexc
  %23 = getelementptr inbounds i8, ptr %10, i64 8
  %24 = load i32, ptr %23, align 8
  %.not.i.i = icmp eq i32 %24, 0
  br i1 %.not.i.i, label %29, label %25

25:                                               ; preds = %_ZN2cv3hal12cpu_baselineL8bin_loopINS1_6op_minEaNS_12hal_baseline5v_regIaLi16EEEEEvPKT0_mS9_mPS7_mii.exit.i
  invoke void @_ZN2cv5utils5trace7details6Region7destroyEv(ptr noundef nonnull align 8 dereferenceable(12) %10)
          to label %29 unwind label %26

26:                                               ; preds = %25
  %27 = landingpad { ptr, i32 }
          catch ptr null
  %28 = extractvalue { ptr, i32 } %27, 0
  call void @__clang_call_terminate(ptr %28) #11
  unreachable

29:                                               ; preds = %25, %_ZN2cv3hal12cpu_baselineL8bin_loopINS1_6op_minEaNS_12hal_baseline5v_regIaLi16EEEEEvPKT0_mS9_mPS7_mii.exit.i
  call void @llvm.lifetime.end.p0(i64 16, ptr nonnull %10)
  %30 = getelementptr inbounds i8, ptr %11, i64 8
  %31 = load i32, ptr %30, align 8
  %.not.i = icmp eq i32 %31, 0
  br i1 %.not.i, label %_ZN2cv5utils5trace7details6RegionD2Ev.exit, label %32

32:                                               ; preds = %29
  invoke void @_ZN2cv5utils5trace7details6Region7destroyEv(ptr noundef nonnull align 8 dereferenceable(12) %11)
          to label %_ZN2cv5utils5trace7details6RegionD2Ev.exit unwind label %33

33:                                               ; preds = %32
  %34 = landingpad { ptr, i32 }
          catch ptr null
  %35 = extractvalue { ptr, i32 } %34, 0
  call void @__clang_call_terminate(ptr %35) #11
  unreachable

_ZN2cv5utils5trace7details6RegionD2Ev.exit:       ; preds = %29, %32
  ret void

36:                                               ; preds = %9
  %37 = landingpad { ptr, i32 }
          cleanup
  call void @_ZN2cv5utils5trace7details6RegionD2Ev(ptr noundef nonnull align 8 dereferenceable(12) %11) #12
  resume { ptr, i32 } %37
}